# SymbolsHelper-Confirmed: 4:20.07.90 amd64
libkaccounts.so.2 libkaccounts2 #MINVER#
* Build-Depends-Package: libkaccounts-dev
 _ZN13AccountsModel11qt_metacallEN11QMetaObject4CallEiPPv@Base 4:20.07.90
 _ZN13AccountsModel11qt_metacastEPKc@Base 4:20.07.90
 _ZN13AccountsModel16staticMetaObjectE@Base 4:20.07.90
 _ZN13AccountsModel7Private11accountByIdEi@Base 4:20.07.90
 _ZN13AccountsModel7Private13removeAccountEj@Base 4:20.07.90
 _ZN13AccountsModelC1EP7QObject@Base 4:20.07.90
 _ZN13AccountsModelC2EP7QObject@Base 4:20.07.90
 _ZN13AccountsModelD0Ev@Base 4:20.07.90
 _ZN13AccountsModelD1Ev@Base 4:20.07.90
 _ZN13AccountsModelD2Ev@Base 4:20.07.90
 _ZN13ServicesModel10setAccountEP7QObject@Base 4:20.07.90
 _ZN13ServicesModel11qt_metacallEN11QMetaObject4CallEiPPv@Base 4:20.07.90
 _ZN13ServicesModel11qt_metacastEPKc@Base 4:20.07.90
 _ZN13ServicesModel14accountChangedEv@Base 4:20.07.90
 _ZN13ServicesModel16staticMetaObjectE@Base 4:20.07.90
 _ZN13ServicesModelC1EP7QObject@Base 4:20.07.90
 _ZN13ServicesModelC2EP7QObject@Base 4:20.07.90
 _ZN13ServicesModelD0Ev@Base 4:20.07.90
 _ZN13ServicesModelD1Ev@Base 4:20.07.90
 _ZN13ServicesModelD2Ev@Base 4:20.07.90
 _ZN14ProvidersModel11qt_metacallEN11QMetaObject4CallEiPPv@Base 4:20.07.90
 _ZN14ProvidersModel11qt_metacastEPKc@Base 4:20.07.90
 _ZN14ProvidersModel16staticMetaObjectE@Base 4:20.07.90
 _ZN14ProvidersModelC1EP7QObject@Base 4:20.07.90
 _ZN14ProvidersModelC2EP7QObject@Base 4:20.07.90
 _ZN14ProvidersModelD0Ev@Base 4:20.07.90
 _ZN14ProvidersModelD1Ev@Base 4:20.07.90
 _ZN14ProvidersModelD2Ev@Base 4:20.07.90
 _ZN16CreateAccountJob11pluginErrorERK7QString@Base 4:20.07.90
 _ZN16CreateAccountJob11qt_metacallEN11QMetaObject4CallEiPPv@Base 4:20.07.90
 _ZN16CreateAccountJob11qt_metacastEPKc@Base 4:20.07.90
 _ZN16CreateAccountJob12sessionErrorERKN6SignOn5ErrorE@Base 4:20.07.90
 _ZN16CreateAccountJob14pluginFinishedERK7QStringS2_RK4QMapIS0_8QVariantE@Base 4:20.07.90
 _ZN16CreateAccountJob14processSessionEv@Base 4:20.07.90
 _ZN16CreateAccountJob15pluginCancelledEv@Base 4:20.12.0
 _ZN16CreateAccountJob15sessionResponseERKN6SignOn11SessionDataE@Base 4:20.07.90
 _ZN16CreateAccountJob15setProviderNameERK7QString@Base 4:20.07.90
 _ZN16CreateAccountJob16staticMetaObjectE@Base 4:20.07.90
 _ZN16CreateAccountJob19providerNameChangedEv@Base 4:20.07.90
 _ZN16CreateAccountJob23loadPluginAndShowDialogERK7QString@Base 4:20.07.90
 _ZN16CreateAccountJob4infoERKN6SignOn12IdentityInfoE@Base 4:20.07.90
 _ZN16CreateAccountJob5startEv@Base 4:20.07.90
 _ZN16CreateAccountJobC1EP7QObject@Base 4:20.07.90
 _ZN16CreateAccountJobC1ERK7QStringP7QObject@Base 4:20.07.90
 _ZN16CreateAccountJobC2EP7QObject@Base 4:20.07.90
 _ZN16CreateAccountJobC2ERK7QStringP7QObject@Base 4:20.07.90
 _ZN16KAccountsDPlugin11qt_metacallEN11QMetaObject4CallEiPPv@Base 0.0
 _ZN16KAccountsDPlugin11qt_metacastEPKc@Base 0.0
 _ZN16KAccountsDPlugin16staticMetaObjectE@Base 0.0
 _ZN16KAccountsDPluginC1EP7QObjectRK5QListI8QVariantE@Base 4:20.07.90
 _ZN16KAccountsDPluginC2EP7QObjectRK5QListI8QVariantE@Base 4:20.07.90
 _ZN16KAccountsDPluginD0Ev@Base 0.0
 _ZN16KAccountsDPluginD1Ev@Base 0.0
 _ZN16KAccountsDPluginD2Ev@Base 0.0
 _ZN16RemoveAccountJob11qt_metacallEN11QMetaObject4CallEiPPv@Base 4:20.07.90
 _ZN16RemoveAccountJob11qt_metacastEPKc@Base 4:20.07.90
 _ZN16RemoveAccountJob12setAccountIdERK7QString@Base 4:20.07.90
 _ZN16RemoveAccountJob16accountIdChangedEv@Base 4:20.07.90
 _ZN16RemoveAccountJob16staticMetaObjectE@Base 4:20.07.90
 _ZN16RemoveAccountJob5startEv@Base 4:20.07.90
 _ZN16RemoveAccountJobC1EP7QObject@Base 4:20.07.90
 _ZN16RemoveAccountJobC2EP7QObject@Base 4:20.07.90
 _ZN16RemoveAccountJobD0Ev@Base 4:20.07.90
 _ZN16RemoveAccountJobD1Ev@Base 4:20.07.90
 _ZN16RemoveAccountJobD2Ev@Base 4:20.07.90
 _ZN17GetCredentialsJob11qt_metacallEN11QMetaObject4CallEiPPv@Base 0.0
 _ZN17GetCredentialsJob11qt_metacastEPKc@Base 0.0
 _ZN17GetCredentialsJob14setServiceTypeERK7QString@Base 0.0
 _ZN17GetCredentialsJob16staticMetaObjectE@Base 0.0
 _ZN17GetCredentialsJob5startEv@Base 0.0
 _ZN17GetCredentialsJob7Private14getCredentialsEv@Base 0.0
 _ZN17GetCredentialsJobC1EjP7QObject@Base 4:20.07.90
 _ZN17GetCredentialsJobC1EjRK7QStringS2_P7QObject@Base 4:20.07.90
 _ZN17GetCredentialsJobC2EjP7QObject@Base 4:20.07.90
 _ZN17GetCredentialsJobC2EjRK7QStringS2_P7QObject@Base 4:20.07.90
 _ZN17GetCredentialsJobD0Ev@Base 4:20.07.90
 _ZN17GetCredentialsJobD1Ev@Base 4:20.07.90
 _ZN17GetCredentialsJobD2Ev@Base 4:20.07.90
 _ZN17KAccountsUiPlugin11qt_metacallEN11QMetaObject4CallEiPPv@Base 0.0
 _ZN17KAccountsUiPlugin11qt_metacastEPKc@Base 0.0
 _ZN17KAccountsUiPlugin13configUiReadyEv@Base 15.08.3
 _ZN17KAccountsUiPlugin16staticMetaObjectE@Base 0.0
 _ZN17KAccountsUiPlugin5errorERK7QString@Base 0.0
 _ZN17KAccountsUiPlugin7successERK7QStringS2_RK4QMapIS0_8QVariantE@Base 0.0
 _ZN17KAccountsUiPlugin7uiReadyEv@Base 0.0
 _ZN17KAccountsUiPlugin8canceledEv@Base 4:20.12.0
 _ZN17KAccountsUiPluginC1EP7QObject@Base 0.0
 _ZN17KAccountsUiPluginC2EP7QObject@Base 0.0
 _ZN17KAccountsUiPluginD0Ev@Base 0.0
 _ZN17KAccountsUiPluginD1Ev@Base 0.0
 _ZN17KAccountsUiPluginD2Ev@Base 0.0
 _ZN23AccountServiceToggleJob11qt_metacallEN11QMetaObject4CallEiPPv@Base 4:20.07.90
 _ZN23AccountServiceToggleJob11qt_metacastEPKc@Base 4:20.07.90
 _ZN23AccountServiceToggleJob12setAccountIdERK7QString@Base 4:20.07.90
 _ZN23AccountServiceToggleJob12setServiceIdERK7QString@Base 4:20.07.90
 _ZN23AccountServiceToggleJob16accountIdChangedEv@Base 4:20.07.90
 _ZN23AccountServiceToggleJob16serviceIdChangedEv@Base 4:20.07.90
 _ZN23AccountServiceToggleJob16staticMetaObjectE@Base 4:20.07.90
 _ZN23AccountServiceToggleJob17setServiceEnabledEb@Base 4:20.07.90
 _ZN23AccountServiceToggleJob21serviceEnabledChangedEv@Base 4:20.07.90
 _ZN23AccountServiceToggleJob5startEv@Base 4:20.07.90
 _ZN23AccountServiceToggleJobC1EP7QObject@Base 4:20.07.90
 _ZN23AccountServiceToggleJobC2EP7QObject@Base 4:20.07.90
 _ZN23AccountServiceToggleJobD0Ev@Base 4:20.07.90
 _ZN23AccountServiceToggleJobD1Ev@Base 4:20.07.90
 _ZN23AccountServiceToggleJobD2Ev@Base 4:20.07.90
 _ZN27ChangeAccountDisplayNameJob11qt_metacallEN11QMetaObject4CallEiPPv@Base 4:20.07.90
 _ZN27ChangeAccountDisplayNameJob11qt_metacastEPKc@Base 4:20.07.90
 _ZN27ChangeAccountDisplayNameJob12setAccountIdERK7QString@Base 4:20.07.90
 _ZN27ChangeAccountDisplayNameJob14setDisplayNameERK7QString@Base 4:20.07.90
 _ZN27ChangeAccountDisplayNameJob16accountIdChangedEv@Base 4:20.07.90
 _ZN27ChangeAccountDisplayNameJob16staticMetaObjectE@Base 4:20.07.90
 _ZN27ChangeAccountDisplayNameJob18displayNameChangedEv@Base 4:20.07.90
 _ZN27ChangeAccountDisplayNameJob5startEv@Base 4:20.07.90
 _ZN27ChangeAccountDisplayNameJobC1EP7QObject@Base 4:20.07.90
 _ZN27ChangeAccountDisplayNameJobC2EP7QObject@Base 4:20.07.90
 _ZN27ChangeAccountDisplayNameJobD0Ev@Base 4:20.07.90
 _ZN27ChangeAccountDisplayNameJobD1Ev@Base 4:20.07.90
 _ZN27ChangeAccountDisplayNameJobD2Ev@Base 4:20.07.90
 _ZN9KAccounts15accountsManagerEv@Base 0.0
 _ZNK13AccountsModel10metaObjectEv@Base 4:20.07.90
 _ZNK13AccountsModel4dataERK11QModelIndexi@Base 4:20.07.90
 _ZNK13AccountsModel8rowCountERK11QModelIndex@Base 4:20.07.90
 _ZNK13AccountsModel9roleNamesEv@Base 4:20.07.90
 _ZNK13ServicesModel10metaObjectEv@Base 4:20.07.90
 _ZNK13ServicesModel15accountIconNameEv@Base 4:20.07.90
 _ZNK13ServicesModel18accountDisplayNameEv@Base 4:20.07.90
 _ZNK13ServicesModel19accountProviderNameEv@Base 4:20.07.90
 _ZNK13ServicesModel4dataERK11QModelIndexi@Base 4:20.07.90
 _ZNK13ServicesModel7accountEv@Base 4:20.07.90
 _ZNK13ServicesModel8rowCountERK11QModelIndex@Base 4:20.07.90
 _ZNK13ServicesModel9accountIdEv@Base 4:20.07.90
 _ZNK13ServicesModel9roleNamesEv@Base 4:20.07.90
 _ZNK14ProvidersModel10metaObjectEv@Base 4:20.07.90
 _ZNK14ProvidersModel4dataERK11QModelIndexi@Base 4:20.07.90
 _ZNK14ProvidersModel8rowCountERK11QModelIndex@Base 4:20.07.90
 _ZNK14ProvidersModel9roleNamesEv@Base 4:20.07.90
 _ZNK16CreateAccountJob10metaObjectEv@Base 4:20.07.90
 _ZNK16KAccountsDPlugin10metaObjectEv@Base 0.0
 _ZNK16RemoveAccountJob10metaObjectEv@Base 4:20.07.90
 _ZNK16RemoveAccountJob9accountIdEv@Base 4:20.07.90
 _ZNK17GetCredentialsJob10metaObjectEv@Base 0.0
 _ZNK17GetCredentialsJob15credentialsDataEv@Base 0.0
 _ZNK17GetCredentialsJob9accountIdEv@Base 0.0
 _ZNK17KAccountsUiPlugin10metaObjectEv@Base 0.0
 _ZNK17KAccountsUiPlugin15transientParentEv@Base 15.08.3
 _ZNK23AccountServiceToggleJob10metaObjectEv@Base 4:20.07.90
 _ZNK23AccountServiceToggleJob14serviceEnabledEv@Base 4:20.07.90
 _ZNK23AccountServiceToggleJob9accountIdEv@Base 4:20.07.90
 _ZNK23AccountServiceToggleJob9serviceIdEv@Base 4:20.07.90
 _ZNK27ChangeAccountDisplayNameJob10metaObjectEv@Base 4:20.07.90
 _ZNK27ChangeAccountDisplayNameJob11displayNameEv@Base 4:20.07.90
 _ZNK27ChangeAccountDisplayNameJob9accountIdEv@Base 4:20.07.90
 _ZTI13AccountsModel@Base 4:20.07.90
 _ZTI13ServicesModel@Base 4:20.07.90
 _ZTI14ProvidersModel@Base 4:20.07.90
 _ZTI16CreateAccountJob@Base 4:20.07.90
 _ZTI16KAccountsDPlugin@Base 0.0
 _ZTI16RemoveAccountJob@Base 4:20.07.90
 _ZTI17GetCredentialsJob@Base 0.0
 _ZTI17KAccountsUiPlugin@Base 0.0
 _ZTI23AccountServiceToggleJob@Base 4:20.07.90
 _ZTI27ChangeAccountDisplayNameJob@Base 4:20.07.90
 _ZTIN13AccountsModel7PrivateE@Base 4:20.07.90
 _ZTIN13ServicesModel7PrivateE@Base 4:20.07.90
 _ZTS13AccountsModel@Base 4:20.07.90
 _ZTS13ServicesModel@Base 4:20.07.90
 _ZTS14ProvidersModel@Base 4:20.07.90
 _ZTS16CreateAccountJob@Base 4:20.07.90
 _ZTS16KAccountsDPlugin@Base 0.0
 _ZTS16RemoveAccountJob@Base 4:20.07.90
 _ZTS17GetCredentialsJob@Base 0.0
 _ZTS17KAccountsUiPlugin@Base 0.0
 _ZTS23AccountServiceToggleJob@Base 4:20.07.90
 _ZTS27ChangeAccountDisplayNameJob@Base 4:20.07.90
 _ZTSN13AccountsModel7PrivateE@Base 4:20.07.90
 _ZTSN13ServicesModel7PrivateE@Base 4:20.07.90
 _ZTV13AccountsModel@Base 4:20.07.90
 _ZTV13ServicesModel@Base 4:20.07.90
 _ZTV14ProvidersModel@Base 4:20.07.90
 _ZTV16CreateAccountJob@Base 4:20.07.90
 _ZTV16KAccountsDPlugin@Base 0.0
 _ZTV16RemoveAccountJob@Base 4:20.07.90
 _ZTV17GetCredentialsJob@Base 0.0
 _ZTV17KAccountsUiPlugin@Base 0.0
 _ZTV23AccountServiceToggleJob@Base 4:20.07.90
 _ZTV27ChangeAccountDisplayNameJob@Base 4:20.07.90
 _ZTVN13AccountsModel7PrivateE@Base 4:20.07.90
 _ZTVN13ServicesModel7PrivateE@Base 4:20.07.90
